target datalayout = "e-m:e-p270:32:32-p271:32:32-p272:64:64-i64:64-i128:128-f80:128-n8:16:32:64-S128"
target triple = "x86_64-pc-linux-gnu"

%"struct.absl::debugging_internal::State" = type { ptr, ptr, i32, i32, i32, %"struct.absl::debugging_internal::ParseState" }
%"struct.absl::debugging_internal::ParseState" = type { i32, i32, i32, i32 }
%"class.absl::debugging_internal::(anonymous namespace)::ComplexityGuard" = type { ptr }

; Function Attrs: mustprogress nounwind uwtable
define internal void @_ZN4absl18debugging_internal12_GLOBAL__N_119UpdateHighWaterMarkEPNS0_5StateE(ptr noundef %0) #3 {
  %2 = alloca ptr, align 8
  store ptr %0, ptr %2, align 8, !tbaa !16
  ret void
}

; Function Attrs: mustprogress nounwind uwtable
define internal void @_ZN4absl18debugging_internal12_GLOBAL__N_115ComplexityGuardD2Ev(ptr noundef nonnull align 8 dereferenceable(8) %0) unnamed_addr #3 align 2 {
  %2 = alloca ptr, align 8
  store ptr %0, ptr %2, align 8, !tbaa !27
  %3 = load ptr, ptr %2, align 8
  %4 = getelementptr inbounds nuw %"class.absl::debugging_internal::(anonymous namespace)::ComplexityGuard", ptr %3, i32 0, i32 0
  %5 = load ptr, ptr %4, align 8, !tbaa !29
  %6 = getelementptr inbounds nuw %"struct.absl::debugging_internal::State", ptr %5, i32 0, i32 3
  %7 = load i32, ptr %6, align 4, !tbaa !20
  %8 = add nsw i32 %7, -1
  store i32 %8, ptr %6, align 4, !tbaa !20
  ret void
}

; Function Attrs: mustprogress nounwind uwtable
define internal noundef zeroext i1 @_ZN4absl18debugging_internalL7IsDigitEc(i8 noundef signext %0) #3 {
  %2 = alloca i8, align 1
  store i8 %0, ptr %2, align 1, !tbaa !11
  %3 = load i8, ptr %2, align 1, !tbaa !11
  %4 = sext i8 %3 to i32
  %5 = icmp sge i32 %4, 48
  br i1 %5, label %6, label %10

6:                                                ; preds = %1
  %7 = load i8, ptr %2, align 1, !tbaa !11
  %8 = sext i8 %7 to i32
  %9 = icmp sle i32 %8, 57
  br label %10

10:                                               ; preds = %6, %1
  %11 = phi i1 [ false, %1 ], [ %9, %6 ]
  ret i1 %11
}

; Function Attrs: inlinehint mustprogress nounwind uwtable
define internal noundef ptr @_ZN4absl18debugging_internalL14RemainingInputEPNS0_5StateE(ptr noundef %0) #5 {
  %2 = alloca ptr, align 8
  store ptr %0, ptr %2, align 8, !tbaa !16
  %3 = load ptr, ptr %2, align 8, !tbaa !16
  %4 = getelementptr inbounds nuw %"struct.absl::debugging_internal::State", ptr %3, i32 0, i32 0
  %5 = load ptr, ptr %4, align 8, !tbaa !17
  %6 = load ptr, ptr %2, align 8, !tbaa !16
  %7 = getelementptr inbounds nuw %"struct.absl::debugging_internal::State", ptr %6, i32 0, i32 5
  %8 = getelementptr inbounds nuw %"struct.absl::debugging_internal::ParseState", ptr %7, i32 0, i32 0
  %9 = load i32, ptr %8, align 4, !tbaa !22
  %10 = sext i32 %9 to i64
  %11 = getelementptr inbounds i8, ptr %5, i64 %10
  ret ptr %11
}

; Function Attrs: mustprogress nounwind uwtable
define internal noundef zeroext i1 @_ZNK4absl18debugging_internal12_GLOBAL__N_115ComplexityGuard12IsTooComplexEv(ptr noundef nonnull align 8 dereferenceable(8) %0) #3 align 2 {
  %2 = alloca i1, align 1
  %3 = alloca ptr, align 8
  store ptr %0, ptr %3, align 8, !tbaa !27
  %4 = load ptr, ptr %3, align 8
  %5 = getelementptr inbounds nuw %"class.absl::debugging_internal::(anonymous namespace)::ComplexityGuard", ptr %4, i32 0, i32 0
  %6 = load ptr, ptr %5, align 8, !tbaa !29
  %7 = getelementptr inbounds nuw %"struct.absl::debugging_internal::State", ptr %6, i32 0, i32 3
  %8 = load i32, ptr %7, align 4, !tbaa !20
  %9 = icmp sgt i32 %8, 256
  br i1 %9, label %16, label %10

10:                                               ; preds = %1
  %11 = getelementptr inbounds nuw %"class.absl::debugging_internal::(anonymous namespace)::ComplexityGuard", ptr %4, i32 0, i32 0
  %12 = load ptr, ptr %11, align 8, !tbaa !29
  %13 = getelementptr inbounds nuw %"struct.absl::debugging_internal::State", ptr %12, i32 0, i32 4
  %14 = load i32, ptr %13, align 8, !tbaa !21
  %15 = icmp sgt i32 %14, 131072
  br i1 %15, label %16, label %17

16:                                               ; preds = %10, %1
  store i1 true, ptr %2, align 1
  br label %18

17:                                               ; preds = %10
  store i1 false, ptr %2, align 1
  br label %18

18:                                               ; preds = %17, %16
  %19 = load i1, ptr %2, align 1
  ret i1 %19
}

; Function Attrs: mustprogress nounwind uwtable
define internal void @_ZN4absl18debugging_internal12_GLOBAL__N_115ComplexityGuardC2EPNS0_5StateE(ptr noundef nonnull align 8 dereferenceable(8) %0, ptr noundef %1) unnamed_addr #3 align 2 {
  %3 = alloca ptr, align 8
  %4 = alloca ptr, align 8
  store ptr %0, ptr %3, align 8, !tbaa !27
  store ptr %1, ptr %4, align 8, !tbaa !16
  %5 = load ptr, ptr %3, align 8
  %6 = getelementptr inbounds nuw %"class.absl::debugging_internal::(anonymous namespace)::ComplexityGuard", ptr %5, i32 0, i32 0
  %7 = load ptr, ptr %4, align 8, !tbaa !16
  store ptr %7, ptr %6, align 8, !tbaa !29
  %8 = load ptr, ptr %4, align 8, !tbaa !16
  %9 = getelementptr inbounds nuw %"struct.absl::debugging_internal::State", ptr %8, i32 0, i32 3
  %10 = load i32, ptr %9, align 4, !tbaa !20
  %11 = add nsw i32 %10, 1
  store i32 %11, ptr %9, align 4, !tbaa !20
  %12 = load ptr, ptr %4, align 8, !tbaa !16
  %13 = getelementptr inbounds nuw %"struct.absl::debugging_internal::State", ptr %12, i32 0, i32 4
  %14 = load i32, ptr %13, align 8, !tbaa !21
  %15 = add nsw i32 %14, 1
  store i32 %15, ptr %13, align 8, !tbaa !21
  ret void
}

; Function Attrs: mustprogress uwtable
define internal noundef zeroext i1 @_ZN4absl18debugging_internalL10ParseSeqIdEPNS0_5StateE(ptr noundef %0) #0 personality ptr @__gxx_personality_v0 {
  %2 = alloca i1, align 1
  %3 = alloca ptr, align 8
  %4 = alloca %"class.absl::debugging_internal::(anonymous namespace)::ComplexityGuard", align 8
  %5 = alloca i32, align 4
  %6 = alloca ptr, align 8
  %7 = alloca ptr, align 8
  %8 = alloca i32, align 4
  store ptr %0, ptr %3, align 8, !tbaa !16
  call void @llvm.lifetime.start.p0(i64 8, ptr %4) #12
  %9 = load ptr, ptr %3, align 8, !tbaa !16
  call void @_ZN4absl18debugging_internal12_GLOBAL__N_115ComplexityGuardC2EPNS0_5StateE(ptr noundef nonnull align 8 dereferenceable(8) %4, ptr noundef %9)
  %10 = call noundef zeroext i1 @_ZNK4absl18debugging_internal12_GLOBAL__N_115ComplexityGuard12IsTooComplexEv(ptr noundef nonnull align 8 dereferenceable(8) %4)
  br i1 %10, label %11, label %12

11:                                               ; preds = %1
  store i1 false, ptr %2, align 1
  store i32 1, ptr %5, align 4
  br label %68

12:                                               ; preds = %1
  call void @llvm.lifetime.start.p0(i64 8, ptr %6) #12
  %13 = load ptr, ptr %3, align 8, !tbaa !16
  %14 = invoke noundef ptr @_ZN4absl18debugging_internalL14RemainingInputEPNS0_5StateE(ptr noundef %13)
          to label %15 unwind label %36

15:                                               ; preds = %12
  store ptr %14, ptr %6, align 8, !tbaa !4
  br label %16

16:                                               ; preds = %41, %15
  %17 = load ptr, ptr %6, align 8, !tbaa !4
  %18 = load i8, ptr %17, align 1, !tbaa !11
  %19 = sext i8 %18 to i32
  %20 = icmp ne i32 %19, 0
  br i1 %20, label %21, label %44

21:                                               ; preds = %16
  %22 = load ptr, ptr %6, align 8, !tbaa !4
  %23 = load i8, ptr %22, align 1, !tbaa !11
  %24 = call noundef zeroext i1 @_ZN4absl18debugging_internalL7IsDigitEc(i8 noundef signext %23)
  br i1 %24, label %40, label %25

25:                                               ; preds = %21
  %26 = load ptr, ptr %6, align 8, !tbaa !4
  %27 = load i8, ptr %26, align 1, !tbaa !11
  %28 = sext i8 %27 to i32
  %29 = icmp sge i32 %28, 65
  br i1 %29, label %30, label %35

30:                                               ; preds = %25
  %31 = load ptr, ptr %6, align 8, !tbaa !4
  %32 = load i8, ptr %31, align 1, !tbaa !11
  %33 = sext i8 %32 to i32
  %34 = icmp sle i32 %33, 90
  br i1 %34, label %40, label %35

35:                                               ; preds = %30, %25
  br label %44

36:                                               ; preds = %50, %44, %12
  %37 = landingpad { ptr, i32 }
          cleanup
  %38 = extractvalue { ptr, i32 } %37, 0
  store ptr %38, ptr %7, align 8
  %39 = extractvalue { ptr, i32 } %37, 1
  store i32 %39, ptr %8, align 4
  call void @llvm.lifetime.end.p0(i64 8, ptr %6) #12
  call void @_ZN4absl18debugging_internal12_GLOBAL__N_115ComplexityGuardD2Ev(ptr noundef nonnull align 8 dereferenceable(8) %4) #12
  call void @llvm.lifetime.end.p0(i64 8, ptr %4) #12
  br label %70

40:                                               ; preds = %30, %21
  br label %41

41:                                               ; preds = %40
  %42 = load ptr, ptr %6, align 8, !tbaa !4
  %43 = getelementptr inbounds nuw i8, ptr %42, i32 1
  store ptr %43, ptr %6, align 8, !tbaa !4
  br label %16, !llvm.loop !65

44:                                               ; preds = %35, %16
  %45 = load ptr, ptr %6, align 8, !tbaa !4
  %46 = load ptr, ptr %3, align 8, !tbaa !16
  %47 = invoke noundef ptr @_ZN4absl18debugging_internalL14RemainingInputEPNS0_5StateE(ptr noundef %46)
          to label %48 unwind label %36

48:                                               ; preds = %44
  %49 = icmp ne ptr %45, %47
  br i1 %49, label %50, label %66

50:                                               ; preds = %48
  %51 = load ptr, ptr %6, align 8, !tbaa !4
  %52 = load ptr, ptr %3, align 8, !tbaa !16
  %53 = invoke noundef ptr @_ZN4absl18debugging_internalL14RemainingInputEPNS0_5StateE(ptr noundef %52)
          to label %54 unwind label %36

54:                                               ; preds = %50
  %55 = ptrtoint ptr %51 to i64
  %56 = ptrtoint ptr %53 to i64
  %57 = sub i64 %55, %56
  %58 = load ptr, ptr %3, align 8, !tbaa !16
  %59 = getelementptr inbounds nuw %"struct.absl::debugging_internal::State", ptr %58, i32 0, i32 5
  %60 = getelementptr inbounds nuw %"struct.absl::debugging_internal::ParseState", ptr %59, i32 0, i32 0
  %61 = load i32, ptr %60, align 4, !tbaa !22
  %62 = sext i32 %61 to i64
  %63 = add nsw i64 %62, %57
  %64 = trunc i64 %63 to i32
  store i32 %64, ptr %60, align 4, !tbaa !22
  %65 = load ptr, ptr %3, align 8, !tbaa !16
  call void @_ZN4absl18debugging_internal12_GLOBAL__N_119UpdateHighWaterMarkEPNS0_5StateE(ptr noundef %65)
  store i1 true, ptr %2, align 1
  store i32 1, ptr %5, align 4
  br label %67

66:                                               ; preds = %48
  store i1 false, ptr %2, align 1
  store i32 1, ptr %5, align 4
  br label %67

67:                                               ; preds = %66, %54
  call void @llvm.lifetime.end.p0(i64 8, ptr %6) #12
  br label %68

68:                                               ; preds = %67, %11
  call void @_ZN4absl18debugging_internal12_GLOBAL__N_115ComplexityGuardD2Ev(ptr noundef nonnull align 8 dereferenceable(8) %4) #12
  call void @llvm.lifetime.end.p0(i64 8, ptr %4) #12
  %69 = load i1, ptr %2, align 1
  ret i1 %69

70:                                               ; preds = %36
  %71 = load ptr, ptr %7, align 8
  %72 = load i32, ptr %8, align 4
  %73 = insertvalue { ptr, i32 } poison, ptr %71, 0
  %74 = insertvalue { ptr, i32 } %73, i32 %72, 1
  resume { ptr, i32 } %74
}