; Function Attrs: mustprogress nofree norecurse nosync nounwind memory(read, argmem: readwrite, inaccessiblemem: none) uwtable
define internal fastcc noundef zeroext i1 @_ZN4absl18debugging_internalL10ParseSeqIdEPNS0_5StateE(ptr noundef captures(none) %0) unnamed_addr #8 personality ptr @__gxx_personality_v0 {
  %2 = getelementptr inbounds nuw i8, ptr %0, i64 20
  %3 = load i32, ptr %2, align 4, !tbaa !17
  %4 = add nsw i32 %3, 1
  store i32 %4, ptr %2, align 4, !tbaa !17
  %5 = getelementptr inbounds nuw i8, ptr %0, i64 24
  %6 = load i32, ptr %5, align 8, !tbaa !15
  %7 = add nsw i32 %6, 1
  store i32 %7, ptr %5, align 8, !tbaa !15
  %8 = icmp sgt i32 %3, 255
  %9 = icmp sgt i32 %6, 131071
  %or.cond25 = select i1 %8, i1 true, i1 %9
  br i1 %or.cond25, label %_ZNK4absl18debugging_internal12_GLOBAL__N_115ComplexityGuard12IsTooComplexEv.exit.thread, label %10

10:                                               ; preds = %1
  %.val22 = load ptr, ptr %0, align 8, !tbaa !7
  %11 = getelementptr i8, ptr %0, i64 28
  %.val23 = load i32, ptr %11, align 4, !tbaa !16
  %12 = sext i32 %.val23 to i64
  %13 = getelementptr inbounds i8, ptr %.val22, i64 %12
  %14 = load i8, ptr %13, align 1, !tbaa !4
  %.not27 = icmp eq i8 %14, 0
  br i1 %.not27, label %_ZNK4absl18debugging_internal12_GLOBAL__N_115ComplexityGuard12IsTooComplexEv.exit.thread, label %.lr.ph

.lr.ph:                                           ; preds = %10, %19
  %15 = phi i8 [ %21, %19 ], [ %14, %10 ]
  %.028 = phi ptr [ %20, %19 ], [ %13, %10 ]
  %16 = add i8 %15, -48
  %17 = icmp ult i8 %16, 10
  %18 = add i8 %15, -65
  %or.cond = icmp ult i8 %18, 26
  %or.cond26 = or i1 %17, %or.cond
  br i1 %or.cond26, label %19, label %._crit_edge

19:                                               ; preds = %.lr.ph
  %20 = getelementptr inbounds nuw i8, ptr %.028, i64 1
  %21 = load i8, ptr %20, align 1, !tbaa !4
  %.not = icmp eq i8 %21, 0
  br i1 %.not, label %._crit_edge.thread33, label %.lr.ph, !llvm.loop !35

._crit_edge:                                      ; preds = %.lr.ph
  %.not16.not = icmp eq ptr %.028, %13
  br i1 %.not16.not, label %_ZNK4absl18debugging_internal12_GLOBAL__N_115ComplexityGuard12IsTooComplexEv.exit.thread, label %._crit_edge.thread33

._crit_edge.thread33:                             ; preds = %19, %._crit_edge
  %.0.lcssa36 = phi ptr [ %.028, %._crit_edge ], [ %20, %19 ]
  %22 = ptrtoint ptr %.0.lcssa36 to i64
  %23 = ptrtoint ptr %13 to i64
  %24 = sub i64 %22, %23
  %25 = trunc i64 %24 to i32
  %26 = add i32 %.val23, %25
  store i32 %26, ptr %11, align 4, !tbaa !16
  br label %_ZNK4absl18debugging_internal12_GLOBAL__N_115ComplexityGuard12IsTooComplexEv.exit.thread

_ZNK4absl18debugging_internal12_GLOBAL__N_115ComplexityGuard12IsTooComplexEv.exit.thread: ; preds = %10, %1, %._crit_edge.thread33, %._crit_edge
  %.014 = phi i1 [ false, %._crit_edge ], [ true, %._crit_edge.thread33 ], [ false, %1 ], [ false, %10 ]
  store i32 %3, ptr %2, align 4, !tbaa !17
  ret i1 %.014
}